; ModuleID = '51/295.c'
source_filename = "51/295.c"
target datalayout = "e-m:e-p270:32:32-p271:32:32-p272:64:64-i64:64-f80:128-n8:16:32:64-S128"
target triple = "x86_64-pc-linux-gnu"

%struct.cc = type { [6 x i8], i32 }

@.str = private unnamed_addr constant [6 x i8] c"%d %s\00", align 1
@.str.1 = private unnamed_addr constant [4 x i8] c"NO\0A\00", align 1
@.str.2 = private unnamed_addr constant [4 x i8] c"%d\0A\00", align 1
@.str.3 = private unnamed_addr constant [4 x i8] c"%s\0A\00", align 1

; Function Attrs: noinline nounwind uwtable
define dso_local void @main() #0 {
  %1 = alloca [510 x i8], align 16
  %2 = alloca [6 x i8], align 1
  %3 = alloca [500 x %struct.cc], align 16
  %4 = alloca i32, align 4
  %5 = alloca i32, align 4
  %6 = alloca i32, align 4
  %7 = alloca i32, align 4
  %8 = alloca i32, align 4
  %9 = alloca i32, align 4
  %10 = alloca i32, align 4
  %11 = alloca i32, align 4
  store i32 0, i32* %7, align 4
  store i32 0, i32* %9, align 4
  store i32 0, i32* %10, align 4
  store i32 0, i32* %11, align 4
  %12 = getelementptr inbounds [510 x i8], [510 x i8]* %1, i64 0, i64 0
  %13 = call i32 (i8*, ...) @__isoc99_scanf(i8* getelementptr inbounds ([6 x i8], [6 x i8]* @.str, i64 0, i64 0), i32* %4, i8* %12)
  %14 = getelementptr inbounds [510 x i8], [510 x i8]* %1, i64 0, i64 0
  %15 = call i64 @strlen(i8* %14) #4
  %16 = trunc i64 %15 to i32
  store i32 %16, i32* %8, align 4
  store i32 0, i32* %5, align 4
  br label %17

17:                                               ; preds = %102, %0
  %18 = load i32, i32* %5, align 4
  %19 = load i32, i32* %8, align 4
  %20 = load i32, i32* %4, align 4
  %21 = sub nsw i32 %19, %20
  %22 = icmp sle i32 %18, %21
  br i1 %22, label %23, label %105

23:                                               ; preds = %17
  store i32 0, i32* %6, align 4
  br label %24

24:                                               ; preds = %38, %23
  %25 = load i32, i32* %6, align 4
  %26 = load i32, i32* %4, align 4
  %27 = icmp slt i32 %25, %26
  br i1 %27, label %28, label %41

28:                                               ; preds = %24
  %29 = load i32, i32* %6, align 4
  %30 = load i32, i32* %5, align 4
  %31 = add nsw i32 %29, %30
  %32 = sext i32 %31 to i64
  %33 = getelementptr inbounds [510 x i8], [510 x i8]* %1, i64 0, i64 %32
  %34 = load i8, i8* %33, align 1
  %35 = load i32, i32* %6, align 4
  %36 = sext i32 %35 to i64
  %37 = getelementptr inbounds [6 x i8], [6 x i8]* %2, i64 0, i64 %36
  store i8 %34, i8* %37, align 1
  br label %38

38:                                               ; preds = %28
  %39 = load i32, i32* %6, align 4
  %40 = add nsw i32 %39, 1
  store i32 %40, i32* %6, align 4
  br label %24

41:                                               ; preds = %24
  %42 = load i32, i32* %6, align 4
  %43 = sext i32 %42 to i64
  %44 = getelementptr inbounds [6 x i8], [6 x i8]* %2, i64 0, i64 %43
  store i8 0, i8* %44, align 1
  %45 = load i32, i32* %9, align 4
  %46 = icmp eq i32 %45, 0
  br i1 %46, label %47, label %57

47:                                               ; preds = %41
  %48 = getelementptr inbounds [500 x %struct.cc], [500 x %struct.cc]* %3, i64 0, i64 0
  %49 = getelementptr inbounds %struct.cc, %struct.cc* %48, i32 0, i32 0
  %50 = getelementptr inbounds [6 x i8], [6 x i8]* %49, i64 0, i64 0
  %51 = getelementptr inbounds [6 x i8], [6 x i8]* %2, i64 0, i64 0
  %52 = call i8* @strcpy(i8* %50, i8* %51) #5
  %53 = load i32, i32* %9, align 4
  %54 = add nsw i32 %53, 1
  store i32 %54, i32* %9, align 4
  %55 = getelementptr inbounds [500 x %struct.cc], [500 x %struct.cc]* %3, i64 0, i64 0
  %56 = getelementptr inbounds %struct.cc, %struct.cc* %55, i32 0, i32 1
  store i32 1, i32* %56, align 8
  br label %101

57:                                               ; preds = %41
  store i32 0, i32* %6, align 4
  br label %58

58:                                               ; preds = %79, %57
  %59 = load i32, i32* %6, align 4
  %60 = load i32, i32* %9, align 4
  %61 = icmp slt i32 %59, %60
  br i1 %61, label %62, label %82

62:                                               ; preds = %58
  %63 = getelementptr inbounds [6 x i8], [6 x i8]* %2, i64 0, i64 0
  %64 = load i32, i32* %6, align 4
  %65 = sext i32 %64 to i64
  %66 = getelementptr inbounds [500 x %struct.cc], [500 x %struct.cc]* %3, i64 0, i64 %65
  %67 = getelementptr inbounds %struct.cc, %struct.cc* %66, i32 0, i32 0
  %68 = getelementptr inbounds [6 x i8], [6 x i8]* %67, i64 0, i64 0
  %69 = call i32 @strcmp(i8* %63, i8* %68) #4
  %70 = icmp eq i32 %69, 0
  br i1 %70, label %71, label %78

71:                                               ; preds = %62
  %72 = load i32, i32* %6, align 4
  %73 = sext i32 %72 to i64
  %74 = getelementptr inbounds [500 x %struct.cc], [500 x %struct.cc]* %3, i64 0, i64 %73
  %75 = getelementptr inbounds %struct.cc, %struct.cc* %74, i32 0, i32 1
  %76 = load i32, i32* %75, align 4
  %77 = add nsw i32 %76, 1
  store i32 %77, i32* %75, align 4
  br label %82

78:                                               ; preds = %62
  br label %79

79:                                               ; preds = %78
  %80 = load i32, i32* %6, align 4
  %81 = add nsw i32 %80, 1
  store i32 %81, i32* %6, align 4
  br label %58

82:                                               ; preds = %71, %58
  %83 = load i32, i32* %6, align 4
  %84 = load i32, i32* %9, align 4
  %85 = icmp eq i32 %83, %84
  br i1 %85, label %86, label %100

86:                                               ; preds = %82
  %87 = load i32, i32* %9, align 4
  %88 = sext i32 %87 to i64
  %89 = getelementptr inbounds [500 x %struct.cc], [500 x %struct.cc]* %3, i64 0, i64 %88
  %90 = getelementptr inbounds %struct.cc, %struct.cc* %89, i32 0, i32 0
  %91 = getelementptr inbounds [6 x i8], [6 x i8]* %90, i64 0, i64 0
  %92 = getelementptr inbounds [6 x i8], [6 x i8]* %2, i64 0, i64 0
  %93 = call i8* @strcpy(i8* %91, i8* %92) #5
  %94 = load i32, i32* %9, align 4
  %95 = sext i32 %94 to i64
  %96 = getelementptr inbounds [500 x %struct.cc], [500 x %struct.cc]* %3, i64 0, i64 %95
  %97 = getelementptr inbounds %struct.cc, %struct.cc* %96, i32 0, i32 1
  store i32 1, i32* %97, align 4
  %98 = load i32, i32* %9, align 4
  %99 = add nsw i32 %98, 1
  store i32 %99, i32* %9, align 4
  br label %100

100:                                              ; preds = %86, %82
  br label %101

101:                                              ; preds = %100, %47
  br label %102

102:                                              ; preds = %101
  %103 = load i32, i32* %5, align 4
  %104 = add nsw i32 %103, 1
  store i32 %104, i32* %5, align 4
  br label %17

105:                                              ; preds = %17
  store i32 0, i32* %5, align 4
  br label %106

106:                                              ; preds = %125, %105
  %107 = load i32, i32* %5, align 4
  %108 = load i32, i32* %9, align 4
  %109 = icmp slt i32 %107, %108
  br i1 %109, label %110, label %128

110:                                              ; preds = %106
  %111 = load i32, i32* %5, align 4
  %112 = sext i32 %111 to i64
  %113 = getelementptr inbounds [500 x %struct.cc], [500 x %struct.cc]* %3, i64 0, i64 %112
  %114 = getelementptr inbounds %struct.cc, %struct.cc* %113, i32 0, i32 1
  %115 = load i32, i32* %114, align 4
  %116 = load i32, i32* %10, align 4
  %117 = icmp sgt i32 %115, %116
  br i1 %117, label %118, label %124

118:                                              ; preds = %110
  %119 = load i32, i32* %5, align 4
  %120 = sext i32 %119 to i64
  %121 = getelementptr inbounds [500 x %struct.cc], [500 x %struct.cc]* %3, i64 0, i64 %120
  %122 = getelementptr inbounds %struct.cc, %struct.cc* %121, i32 0, i32 1
  %123 = load i32, i32* %122, align 4
  store i32 %123, i32* %10, align 4
  br label %124

124:                                              ; preds = %118, %110
  br label %125

125:                                              ; preds = %124
  %126 = load i32, i32* %5, align 4
  %127 = add nsw i32 %126, 1
  store i32 %127, i32* %5, align 4
  br label %106

128:                                              ; preds = %106
  %129 = load i32, i32* %10, align 4
  %130 = icmp eq i32 %129, 1
  br i1 %130, label %131, label %133

131:                                              ; preds = %128
  %132 = call i32 (i8*, ...) @printf(i8* getelementptr inbounds ([4 x i8], [4 x i8]* @.str.1, i64 0, i64 0))
  br label %160

133:                                              ; preds = %128
  %134 = load i32, i32* %10, align 4
  %135 = call i32 (i8*, ...) @printf(i8* getelementptr inbounds ([4 x i8], [4 x i8]* @.str.2, i64 0, i64 0), i32 %134)
  store i32 0, i32* %5, align 4
  br label %136

136:                                              ; preds = %156, %133
  %137 = load i32, i32* %5, align 4
  %138 = load i32, i32* %9, align 4
  %139 = icmp slt i32 %137, %138
  br i1 %139, label %140, label %159

140:                                              ; preds = %136
  %141 = load i32, i32* %5, align 4
  %142 = sext i32 %141 to i64
  %143 = getelementptr inbounds [500 x %struct.cc], [500 x %struct.cc]* %3, i64 0, i64 %142
  %144 = getelementptr inbounds %struct.cc, %struct.cc* %143, i32 0, i32 1
  %145 = load i32, i32* %144, align 4
  %146 = load i32, i32* %10, align 4
  %147 = icmp eq i32 %145, %146
  br i1 %147, label %148, label %155

148:                                              ; preds = %140
  %149 = load i32, i32* %5, align 4
  %150 = sext i32 %149 to i64
  %151 = getelementptr inbounds [500 x %struct.cc], [500 x %struct.cc]* %3, i64 0, i64 %150
  %152 = getelementptr inbounds %struct.cc, %struct.cc* %151, i32 0, i32 0
  %153 = getelementptr inbounds [6 x i8], [6 x i8]* %152, i64 0, i64 0
  %154 = call i32 (i8*, ...) @printf(i8* getelementptr inbounds ([4 x i8], [4 x i8]* @.str.3, i64 0, i64 0), i8* %153)
  br label %155

155:                                              ; preds = %148, %140
  br label %156

156:                                              ; preds = %155
  %157 = load i32, i32* %5, align 4
  %158 = add nsw i32 %157, 1
  store i32 %158, i32* %5, align 4
  br label %136

159:                                              ; preds = %136
  br label %160

160:                                              ; preds = %159, %131
  ret void
}

declare dso_local i32 @__isoc99_scanf(i8*, ...) #1

; Function Attrs: nounwind readonly
declare dso_local i64 @strlen(i8*) #2

; Function Attrs: nounwind
declare dso_local i8* @strcpy(i8*, i8*) #3

; Function Attrs: nounwind readonly
declare dso_local i32 @strcmp(i8*, i8*) #2

declare dso_local i32 @printf(i8*, ...) #1


!llvm.module.flags = !{!0}
!llvm.ident = !{!1}

!0 = !{i32 1, !"wchar_size", i32 4}
!1 = !{!"clang version 10.0.0-4ubuntu1 "}
